SF:/home/ryoken/starry-vdso/src/guard.rs
FN:14,_RNvMNtCsjjO2zJubqNY_11starry_vdso5guardNtB2_14VdsoAllocGuard3new
FN:18,_RNvMNtCsjjO2zJubqNY_11starry_vdso5guardNtB2_14VdsoAllocGuard6disarm
FN:24,_RNvXs_NtCsjjO2zJubqNY_11starry_vdso5guardNtB4_14VdsoAllocGuardNtNtNtCs9N2sQKvZ18D_4core3ops4drop4Drop4drop
FN:24,_RNvXs_NtCsfs3AySnKI7K_11starry_vdso5guardNtB4_14VdsoAllocGuardNtNtNtCs9N2sQKvZ18D_4core3ops4drop4Drop4drop
FN:14,_RNvMNtCsfs3AySnKI7K_11starry_vdso5guardNtB2_14VdsoAllocGuard3new
FN:18,_RNvMNtCsfs3AySnKI7K_11starry_vdso5guardNtB2_14VdsoAllocGuard6disarm
FNDA:0,_RNvMNtCsjjO2zJubqNY_11starry_vdso5guardNtB2_14VdsoAllocGuard3new
FNDA:0,_RNvMNtCsjjO2zJubqNY_11starry_vdso5guardNtB2_14VdsoAllocGuard6disarm
FNDA:0,_RNvXs_NtCsjjO2zJubqNY_11starry_vdso5guardNtB4_14VdsoAllocGuardNtNtNtCs9N2sQKvZ18D_4core3ops4drop4Drop4drop
FNDA:1,_RNvXs_NtCsfs3AySnKI7K_11starry_vdso5guardNtB4_14VdsoAllocGuardNtNtNtCs9N2sQKvZ18D_4core3ops4drop4Drop4drop
FNDA:1,_RNvMNtCsfs3AySnKI7K_11starry_vdso5guardNtB2_14VdsoAllocGuard3new
FNDA:1,_RNvMNtCsfs3AySnKI7K_11starry_vdso5guardNtB2_14VdsoAllocGuard6disarm
FNF:3
FNH:3
DA:14,1
DA:15,1
DA:16,1
DA:18,1
DA:19,1
DA:20,1
DA:24,1
DA:25,1
DA:27,0
DA:28,0
DA:29,0
DA:30,0
DA:31,1
DA:32,1
BRF:0
BRH:0
LF:14
LH:10
end_of_record
SF:/home/ryoken/starry-vdso/src/vdso.rs
FN:129,_RINvNtCsjjO2zJubqNY_11starry_vdso4vdso14load_vdso_datapppEB4_
FN:223,_RINvNtCsjjO2zJubqNY_11starry_vdso4vdso17map_vdso_segmentspEB4_
FN:200,_RINvNtCsjjO2zJubqNY_11starry_vdso4vdso21map_vvar_and_push_auxpEB4_
FN:169,_RNCINvNtCsjjO2zJubqNY_11starry_vdso4vdso14load_vdso_datapppEs_0B6_
FN:242,_RNCINvNtCsjjO2zJubqNY_11starry_vdso4vdso17map_vdso_segmentspE0B6_
FN:18,_RNvNtCsjjO2zJubqNY_11starry_vdso4vdso14init_vdso_data
FN:45,_RNvNtCsjjO2zJubqNY_11starry_vdso4vdso15vdso_data_paddr
FN:37,_RNvNtCsjjO2zJubqNY_11starry_vdso4vdso16update_vdso_data
FN:60,_RNvNtCsjjO2zJubqNY_11starry_vdso4vdso18prepare_vdso_pages
FN:298,_RNvNtCsjjO2zJubqNY_11starry_vdso4vdso19get_trampoline_addr
FN:102,_RNvNtCsjjO2zJubqNY_11starry_vdso4vdso24calculate_vdso_aslr_addr
FN:129,_RINvNtCsfs3AySnKI7K_11starry_vdso4vdso14load_vdso_dataNCNvCseS3mMEWQD84_5testss_9load_vdso0NCBS_s_0NCBS_s0_0EBU_
FN:223,_RINvNtCsfs3AySnKI7K_11starry_vdso4vdso17map_vdso_segmentsNCNvCseS3mMEWQD84_5testss_9load_vdsos0_0EBX_
FN:200,_RINvNtCsfs3AySnKI7K_11starry_vdso4vdso21map_vvar_and_push_auxNCNvCseS3mMEWQD84_5testss_9load_vdsos_0EB11_
FN:169,_RNCINvNtCsfs3AySnKI7K_11starry_vdso4vdso14load_vdso_dataNCNvCseS3mMEWQD84_5testss_9load_vdso0NCBU_s_0NCBU_s0_0Es_0BW_
FN:242,_RNCINvNtCsfs3AySnKI7K_11starry_vdso4vdso17map_vdso_segmentsNCNvCseS3mMEWQD84_5testss_9load_vdsos0_0E0BZ_
FN:18,_RNvNtCsfs3AySnKI7K_11starry_vdso4vdso14init_vdso_data
FN:45,_RNvNtCsfs3AySnKI7K_11starry_vdso4vdso15vdso_data_paddr
FN:37,_RNvNtCsfs3AySnKI7K_11starry_vdso4vdso16update_vdso_data
FN:60,_RNvNtCsfs3AySnKI7K_11starry_vdso4vdso18prepare_vdso_pages
FN:298,_RNvNtCsfs3AySnKI7K_11starry_vdso4vdso19get_trampoline_addr
FN:102,_RNvNtCsfs3AySnKI7K_11starry_vdso4vdso24calculate_vdso_aslr_addr
FNDA:0,_RINvNtCsjjO2zJubqNY_11starry_vdso4vdso14load_vdso_datapppEB4_
FNDA:0,_RINvNtCsjjO2zJubqNY_11starry_vdso4vdso17map_vdso_segmentspEB4_
FNDA:0,_RINvNtCsjjO2zJubqNY_11starry_vdso4vdso21map_vvar_and_push_auxpEB4_
FNDA:0,_RNCINvNtCsjjO2zJubqNY_11starry_vdso4vdso14load_vdso_datapppEs_0B6_
FNDA:0,_RNCINvNtCsjjO2zJubqNY_11starry_vdso4vdso17map_vdso_segmentspE0B6_
FNDA:0,_RNvNtCsjjO2zJubqNY_11starry_vdso4vdso14init_vdso_data
FNDA:0,_RNvNtCsjjO2zJubqNY_11starry_vdso4vdso15vdso_data_paddr
FNDA:0,_RNvNtCsjjO2zJubqNY_11starry_vdso4vdso16update_vdso_data
FNDA:0,_RNvNtCsjjO2zJubqNY_11starry_vdso4vdso18prepare_vdso_pages
FNDA:0,_RNvNtCsjjO2zJubqNY_11starry_vdso4vdso19get_trampoline_addr
FNDA:0,_RNvNtCsjjO2zJubqNY_11starry_vdso4vdso24calculate_vdso_aslr_addr
FNDA:1,_RINvNtCsfs3AySnKI7K_11starry_vdso4vdso14load_vdso_dataNCNvCseS3mMEWQD84_5testss_9load_vdso0NCBS_s_0NCBS_s0_0EBU_
FNDA:1,_RINvNtCsfs3AySnKI7K_11starry_vdso4vdso17map_vdso_segmentsNCNvCseS3mMEWQD84_5testss_9load_vdsos0_0EBX_
FNDA:1,_RINvNtCsfs3AySnKI7K_11starry_vdso4vdso21map_vvar_and_push_auxNCNvCseS3mMEWQD84_5testss_9load_vdsos_0EB11_
FNDA:1,_RNCINvNtCsfs3AySnKI7K_11starry_vdso4vdso14load_vdso_dataNCNvCseS3mMEWQD84_5testss_9load_vdso0NCBU_s_0NCBU_s0_0Es_0BW_
FNDA:4,_RNCINvNtCsfs3AySnKI7K_11starry_vdso4vdso17map_vdso_segmentsNCNvCseS3mMEWQD84_5testss_9load_vdsos0_0E0BZ_
FNDA:0,_RNvNtCsfs3AySnKI7K_11starry_vdso4vdso14init_vdso_data
FNDA:1,_RNvNtCsfs3AySnKI7K_11starry_vdso4vdso15vdso_data_paddr
FNDA:0,_RNvNtCsfs3AySnKI7K_11starry_vdso4vdso16update_vdso_data
FNDA:1,_RNvNtCsfs3AySnKI7K_11starry_vdso4vdso18prepare_vdso_pages
FNDA:0,_RNvNtCsfs3AySnKI7K_11starry_vdso4vdso19get_trampoline_addr
FNDA:1,_RNvNtCsfs3AySnKI7K_11starry_vdso4vdso24calculate_vdso_aslr_addr
FNF:11
FNH:8
DA:18,0
DA:20,0
DA:21,0
DA:22,0
DA:30,0
DA:31,0
DA:32,0
DA:34,0
DA:37,0
DA:38,0
DA:39,0
DA:40,0
DA:41,0
DA:42,0
DA:45,1
DA:46,1
DA:47,1
DA:48,1
DA:60,1
DA:61,1
DA:62,1
DA:64,1
DA:66,1
DA:67,1
DA:68,1
DA:69,1
DA:70,1
DA:72,0
DA:73,0
DA:74,0
DA:76,0
DA:77,0
DA:78,0
DA:80,0
DA:81,0
DA:82,0
DA:83,0
DA:85,0
DA:86,0
DA:87,0
DA:88,0
DA:89,0
DA:90,0
DA:91,0
DA:92,0
DA:93,0
DA:94,0
DA:95,0
DA:96,0
DA:97,0
DA:99,1
DA:102,1
DA:103,1
DA:104,1
DA:105,1
DA:106,1
DA:113,1
DA:114,1
DA:115,1
DA:116,1
DA:117,1
DA:118,1
DA:119,1
DA:120,0
DA:122,1
DA:125,1
DA:126,1
DA:129,1
DA:130,1
DA:131,1
DA:132,1
DA:133,1
DA:134,1
DA:135,1
DA:136,1
DA:137,1
DA:138,1
DA:144,1
DA:145,1
DA:146,1
DA:147,1
DA:148,1
DA:149,1
DA:150,1
DA:152,1
DA:153,0
DA:158,0
DA:159,1
DA:161,1
DA:162,1
DA:164,1
DA:166,1
DA:167,1
DA:169,1
DA:170,1
DA:171,1
DA:172,1
DA:173,1
DA:174,1
DA:175,1
DA:176,1
DA:177,1
DA:178,1
DA:179,1
DA:180,0
DA:181,1
DA:184,0
DA:185,0
DA:186,0
DA:188,0
DA:190,0
DA:191,0
DA:195,1
DA:197,1
DA:198,1
DA:200,1
DA:201,1
DA:202,1
DA:205,1
DA:206,1
DA:208,1
DA:210,1
DA:213,0
DA:217,1
DA:218,1
DA:220,1
DA:221,1
DA:223,1
DA:224,1
DA:225,1
DA:226,1
DA:227,1
DA:228,1
DA:229,1
DA:230,1
DA:231,1
DA:232,1
DA:233,1
DA:234,1
DA:235,1
DA:236,1
DA:238,1
DA:239,1
DA:240,1
DA:241,1
DA:242,4
DA:244,1
DA:245,1
DA:246,1
DA:247,1
DA:249,1
DA:250,1
DA:251,1
DA:253,1
DA:255,1
DA:256,1
DA:298,0
DA:299,0
DA:300,0
BRF:0
BRH:0
LF:161
LH:110
end_of_record
SF:/home/ryoken/starry-vdso/src/vdso_time_data.rs
FN:23,_RNvMNtCsjjO2zJubqNY_11starry_vdso14vdso_time_dataNtB2_13VdsoTimestamp3new
FN:73,_RNvMs0_NtCsjjO2zJubqNY_11starry_vdso14vdso_time_dataNtB5_9VdsoClock18write_seqcount_end
FN:67,_RNvMs0_NtCsjjO2zJubqNY_11starry_vdso14vdso_time_dataNtB5_9VdsoClock20write_seqcount_begin
FN:50,_RNvMs0_NtCsjjO2zJubqNY_11starry_vdso14vdso_time_dataNtB5_9VdsoClock3new
FN:97,_RNvMs2_NtCsjjO2zJubqNY_11starry_vdso14vdso_time_dataNtB5_12VdsoTimeData3new
FN:107,_RNvMs2_NtCsjjO2zJubqNY_11starry_vdso14vdso_time_dataNtB5_12VdsoTimeData6update
FN:123,_RNvNtCsjjO2zJubqNY_11starry_vdso14vdso_time_data17update_vdso_clock
FN:200,_RNvNtCsjjO2zJubqNY_11starry_vdso14vdso_time_data22clocks_calc_mult_shift
FN:91,_RNvXs1_NtCsjjO2zJubqNY_11starry_vdso14vdso_time_dataNtB5_12VdsoTimeDataNtNtCs9N2sQKvZ18D_4core7default7Default7default
FN:43,_RNvXs_NtCsjjO2zJubqNY_11starry_vdso14vdso_time_dataNtB4_9VdsoClockNtNtCs9N2sQKvZ18D_4core7default7Default7default
FN:23,_RNvMNtCsfs3AySnKI7K_11starry_vdso14vdso_time_dataNtB2_13VdsoTimestamp3new
FN:73,_RNvMs0_NtCsfs3AySnKI7K_11starry_vdso14vdso_time_dataNtB5_9VdsoClock18write_seqcount_end
FN:67,_RNvMs0_NtCsfs3AySnKI7K_11starry_vdso14vdso_time_dataNtB5_9VdsoClock20write_seqcount_begin
FN:50,_RNvMs0_NtCsfs3AySnKI7K_11starry_vdso14vdso_time_dataNtB5_9VdsoClock3new
FN:97,_RNvMs2_NtCsfs3AySnKI7K_11starry_vdso14vdso_time_dataNtB5_12VdsoTimeData3new
FN:107,_RNvMs2_NtCsfs3AySnKI7K_11starry_vdso14vdso_time_dataNtB5_12VdsoTimeData6update
FN:123,_RNvNtCsfs3AySnKI7K_11starry_vdso14vdso_time_data17update_vdso_clock
FN:200,_RNvNtCsfs3AySnKI7K_11starry_vdso14vdso_time_data22clocks_calc_mult_shift
FN:91,_RNvXs1_NtCsfs3AySnKI7K_11starry_vdso14vdso_time_dataNtB5_12VdsoTimeDataNtNtCs9N2sQKvZ18D_4core7default7Default7default
FN:43,_RNvXs_NtCsfs3AySnKI7K_11starry_vdso14vdso_time_dataNtB4_9VdsoClockNtNtCs9N2sQKvZ18D_4core7default7Default7default
FNDA:0,_RNvMNtCsjjO2zJubqNY_11starry_vdso14vdso_time_dataNtB2_13VdsoTimestamp3new
FNDA:0,_RNvMs0_NtCsjjO2zJubqNY_11starry_vdso14vdso_time_dataNtB5_9VdsoClock18write_seqcount_end
FNDA:0,_RNvMs0_NtCsjjO2zJubqNY_11starry_vdso14vdso_time_dataNtB5_9VdsoClock20write_seqcount_begin
FNDA:0,_RNvMs0_NtCsjjO2zJubqNY_11starry_vdso14vdso_time_dataNtB5_9VdsoClock3new
FNDA:0,_RNvMs2_NtCsjjO2zJubqNY_11starry_vdso14vdso_time_dataNtB5_12VdsoTimeData3new
FNDA:0,_RNvMs2_NtCsjjO2zJubqNY_11starry_vdso14vdso_time_dataNtB5_12VdsoTimeData6update
FNDA:0,_RNvNtCsjjO2zJubqNY_11starry_vdso14vdso_time_data17update_vdso_clock
FNDA:0,_RNvNtCsjjO2zJubqNY_11starry_vdso14vdso_time_data22clocks_calc_mult_shift
FNDA:0,_RNvXs1_NtCsjjO2zJubqNY_11starry_vdso14vdso_time_dataNtB5_12VdsoTimeDataNtNtCs9N2sQKvZ18D_4core7default7Default7default
FNDA:0,_RNvXs_NtCsjjO2zJubqNY_11starry_vdso14vdso_time_dataNtB4_9VdsoClockNtNtCs9N2sQKvZ18D_4core7default7Default7default
FNDA:0,_RNvMNtCsfs3AySnKI7K_11starry_vdso14vdso_time_dataNtB2_13VdsoTimestamp3new
FNDA:0,_RNvMs0_NtCsfs3AySnKI7K_11starry_vdso14vdso_time_dataNtB5_9VdsoClock18write_seqcount_end
FNDA:0,_RNvMs0_NtCsfs3AySnKI7K_11starry_vdso14vdso_time_dataNtB5_9VdsoClock20write_seqcount_begin
FNDA:0,_RNvMs0_NtCsfs3AySnKI7K_11starry_vdso14vdso_time_dataNtB5_9VdsoClock3new
FNDA:0,_RNvMs2_NtCsfs3AySnKI7K_11starry_vdso14vdso_time_dataNtB5_12VdsoTimeData3new
FNDA:0,_RNvMs2_NtCsfs3AySnKI7K_11starry_vdso14vdso_time_dataNtB5_12VdsoTimeData6update
FNDA:0,_RNvNtCsfs3AySnKI7K_11starry_vdso14vdso_time_data17update_vdso_clock
FNDA:0,_RNvNtCsfs3AySnKI7K_11starry_vdso14vdso_time_data22clocks_calc_mult_shift
FNDA:0,_RNvXs1_NtCsfs3AySnKI7K_11starry_vdso14vdso_time_dataNtB5_12VdsoTimeDataNtNtCs9N2sQKvZ18D_4core7default7Default7default
FNDA:0,_RNvXs_NtCsfs3AySnKI7K_11starry_vdso14vdso_time_dataNtB4_9VdsoClockNtNtCs9N2sQKvZ18D_4core7default7Default7default
FNF:10
FNH:0
DA:23,0
DA:24,0
DA:25,0
DA:43,0
DA:44,0
DA:45,0
DA:50,0
DA:51,0
DA:52,0
DA:53,0
DA:54,0
DA:55,0
DA:56,0
DA:57,0
DA:58,0
DA:59,0
DA:60,0
DA:61,0
DA:62,0
DA:63,0
DA:64,0
DA:65,0
DA:67,0
DA:68,0
DA:69,0
DA:70,0
DA:71,0
DA:73,0
DA:74,0
DA:75,0
DA:76,0
DA:77,0
DA:91,0
DA:92,0
DA:93,0
DA:97,0
DA:98,0
DA:99,0
DA:100,0
DA:101,0
DA:102,0
DA:103,0
DA:104,0
DA:105,0
DA:107,0
DA:108,0
DA:109,0
DA:110,0
DA:111,0
DA:112,0
DA:114,0
DA:115,0
DA:116,0
DA:117,0
DA:118,0
DA:119,0
DA:123,0
DA:124,0
DA:125,0
DA:126,0
DA:127,0
DA:128,0
DA:129,0
DA:130,0
DA:131,0
DA:132,0
DA:133,0
DA:134,0
DA:137,0
DA:139,0
DA:142,0
DA:143,0
DA:144,0
DA:145,0
DA:146,0
DA:147,0
DA:148,0
DA:149,0
DA:150,0
DA:151,0
DA:152,0
DA:153,0
DA:154,0
DA:155,0
DA:156,0
DA:157,0
DA:158,0
DA:159,0
DA:160,0
DA:161,0
DA:162,0
DA:163,0
DA:164,0
DA:165,0
DA:166,0
DA:167,0
DA:170,0
DA:171,0
DA:172,0
DA:173,0
DA:174,0
DA:175,0
DA:176,0
DA:179,0
DA:180,0
DA:181,0
DA:182,0
DA:183,0
DA:185,0
DA:186,0
DA:187,0
DA:189,0
DA:195,0
DA:196,0
DA:200,0
DA:202,0
DA:203,0
DA:204,0
DA:205,0
DA:206,0
DA:207,0
DA:210,0
DA:212,0
DA:213,0
DA:214,0
DA:217,0
DA:218,0
DA:219,0
DA:221,0
DA:223,0
DA:224,0
DA:227,0
DA:228,0
BRF:0
BRH:0
LF:133
LH:0
end_of_record
SF:/home/ryoken/starry-vdso/src/x86_64/getcpu.rs
FN:14,_RNvNtNtCsjjO2zJubqNY_11starry_vdso6x86_646getcpu16init_vdso_getcpu
FNDA:0,_RNvNtNtCsjjO2zJubqNY_11starry_vdso6x86_646getcpu16init_vdso_getcpu
FNF:1
FNH:0
DA:14,0
DA:15,0
DA:16,0
DA:17,0
DA:18,0
DA:20,0
DA:21,0
DA:22,0
DA:23,0
DA:26,0
DA:27,0
DA:30,0
DA:31,0
DA:33,0
DA:34,0
DA:35,0
DA:37,0
DA:38,0
DA:40,0
DA:42,0
DA:44,0
DA:45,0
DA:46,0
DA:48,0
DA:50,0
DA:51,0
DA:52,0
DA:55,0
DA:57,0
DA:58,0
DA:60,0
DA:62,0
DA:64,0
DA:66,0
DA:72,0
DA:73,0
DA:74,0
DA:75,0
DA:77,0
DA:80,0
BRF:0
BRH:0
LF:40
LH:0
end_of_record
SF:/home/ryoken/starry-vdso/src/x86_64/pvclock_data.rs
FN:24,_RNvMNtNtCsjjO2zJubqNY_11starry_vdso6x86_6412pvclock_dataNtB2_15PvClockTimeInfo3new
FN:32,_RNvMs_NtNtCsjjO2zJubqNY_11starry_vdso6x86_6412pvclock_dataNtB4_19PvClockVcpuTimeInfo3new
FN:50,_RNvNtNtCsjjO2zJubqNY_11starry_vdso6x86_6412pvclock_data18register_kvm_clock
FN:24,_RNvMNtNtCsfs3AySnKI7K_11starry_vdso6x86_6412pvclock_dataNtB2_15PvClockTimeInfo3new
FN:32,_RNvMs_NtNtCsfs3AySnKI7K_11starry_vdso6x86_6412pvclock_dataNtB4_19PvClockVcpuTimeInfo3new
FN:50,_RNvNtNtCsfs3AySnKI7K_11starry_vdso6x86_6412pvclock_data18register_kvm_clock
FNDA:0,_RNvMNtNtCsjjO2zJubqNY_11starry_vdso6x86_6412pvclock_dataNtB2_15PvClockTimeInfo3new
FNDA:0,_RNvMs_NtNtCsjjO2zJubqNY_11starry_vdso6x86_6412pvclock_dataNtB4_19PvClockVcpuTimeInfo3new
FNDA:0,_RNvNtNtCsjjO2zJubqNY_11starry_vdso6x86_6412pvclock_data18register_kvm_clock
FNDA:0,_RNvMNtNtCsfs3AySnKI7K_11starry_vdso6x86_6412pvclock_dataNtB2_15PvClockTimeInfo3new
FNDA:0,_RNvMs_NtNtCsfs3AySnKI7K_11starry_vdso6x86_6412pvclock_dataNtB4_19PvClockVcpuTimeInfo3new
FNDA:0,_RNvNtNtCsfs3AySnKI7K_11starry_vdso6x86_6412pvclock_data18register_kvm_clock
FNF:3
FNH:0
DA:24,0
DA:25,0
DA:26,0
DA:27,0
DA:28,0
DA:32,0
DA:33,0
DA:34,0
DA:35,0
DA:36,0
DA:37,0
DA:38,0
DA:39,0
DA:40,0
DA:41,0
DA:42,0
DA:43,0
DA:50,0
DA:51,0
DA:52,0
DA:53,0
DA:54,0
DA:55,0
DA:56,0
DA:57,0
DA:58,0
DA:59,0
DA:60,0
DA:61,0
DA:62,0
DA:63,0
DA:64,0
BRF:0
BRH:0
LF:32
LH:0
end_of_record
SF:/home/ryoken/starry-vdso/src/x86_64/vdso_data.rs
FN:97,_RNvMs0_NtNtCsjjO2zJubqNY_11starry_vdso6x86_649vdso_dataNtNtB9_14vdso_time_data12VdsoTimeData16set_pvclock_mode
FN:28,_RNvMs_NtNtCsjjO2zJubqNY_11starry_vdso6x86_649vdso_dataNtB4_8VdsoData11time_update
FN:33,_RNvMs_NtNtCsjjO2zJubqNY_11starry_vdso6x86_649vdso_dataNtB4_8VdsoData14enable_pvclock
FN:21,_RNvMs_NtNtCsjjO2zJubqNY_11starry_vdso6x86_649vdso_dataNtB4_8VdsoData3new
FN:44,_RNvNtNtCsjjO2zJubqNY_11starry_vdso6x86_649vdso_data16detect_kvm_clock
FN:104,_RNvNtNtCsjjO2zJubqNY_11starry_vdso6x86_649vdso_data16register_pvclock
FN:75,_RNvNtNtCsjjO2zJubqNY_11starry_vdso6x86_649vdso_data5cpuid
FN:15,_RNvXNtNtCsjjO2zJubqNY_11starry_vdso6x86_649vdso_dataNtB2_8VdsoDataNtNtCs9N2sQKvZ18D_4core7default7Default7default
FN:28,_RNvMs_NtNtCsfs3AySnKI7K_11starry_vdso6x86_649vdso_dataNtB4_8VdsoData11time_update
FN:33,_RNvMs_NtNtCsfs3AySnKI7K_11starry_vdso6x86_649vdso_dataNtB4_8VdsoData14enable_pvclock
FN:21,_RNvMs_NtNtCsfs3AySnKI7K_11starry_vdso6x86_649vdso_dataNtB4_8VdsoData3new
FN:44,_RNvNtNtCsfs3AySnKI7K_11starry_vdso6x86_649vdso_data16detect_kvm_clock
FN:104,_RNvNtNtCsfs3AySnKI7K_11starry_vdso6x86_649vdso_data16register_pvclock
FN:75,_RNvNtNtCsfs3AySnKI7K_11starry_vdso6x86_649vdso_data5cpuid
FN:15,_RNvXNtNtCsfs3AySnKI7K_11starry_vdso6x86_649vdso_dataNtB2_8VdsoDataNtNtCs9N2sQKvZ18D_4core7default7Default7default
FN:97,_RNvMs0_NtNtCsfs3AySnKI7K_11starry_vdso6x86_649vdso_dataNtNtB9_14vdso_time_data12VdsoTimeData16set_pvclock_mode
FNDA:0,_RNvMs0_NtNtCsjjO2zJubqNY_11starry_vdso6x86_649vdso_dataNtNtB9_14vdso_time_data12VdsoTimeData16set_pvclock_mode
FNDA:0,_RNvMs_NtNtCsjjO2zJubqNY_11starry_vdso6x86_649vdso_dataNtB4_8VdsoData11time_update
FNDA:0,_RNvMs_NtNtCsjjO2zJubqNY_11starry_vdso6x86_649vdso_dataNtB4_8VdsoData14enable_pvclock
FNDA:0,_RNvMs_NtNtCsjjO2zJubqNY_11starry_vdso6x86_649vdso_dataNtB4_8VdsoData3new
FNDA:0,_RNvNtNtCsjjO2zJubqNY_11starry_vdso6x86_649vdso_data16detect_kvm_clock
FNDA:0,_RNvNtNtCsjjO2zJubqNY_11starry_vdso6x86_649vdso_data16register_pvclock
FNDA:0,_RNvNtNtCsjjO2zJubqNY_11starry_vdso6x86_649vdso_data5cpuid
FNDA:0,_RNvXNtNtCsjjO2zJubqNY_11starry_vdso6x86_649vdso_dataNtB2_8VdsoDataNtNtCs9N2sQKvZ18D_4core7default7Default7default
FNDA:0,_RNvMs_NtNtCsfs3AySnKI7K_11starry_vdso6x86_649vdso_dataNtB4_8VdsoData11time_update
FNDA:0,_RNvMs_NtNtCsfs3AySnKI7K_11starry_vdso6x86_649vdso_dataNtB4_8VdsoData14enable_pvclock
FNDA:0,_RNvMs_NtNtCsfs3AySnKI7K_11starry_vdso6x86_649vdso_dataNtB4_8VdsoData3new
FNDA:0,_RNvNtNtCsfs3AySnKI7K_11starry_vdso6x86_649vdso_data16detect_kvm_clock
FNDA:0,_RNvNtNtCsfs3AySnKI7K_11starry_vdso6x86_649vdso_data16register_pvclock
FNDA:0,_RNvNtNtCsfs3AySnKI7K_11starry_vdso6x86_649vdso_data5cpuid
FNDA:0,_RNvXNtNtCsfs3AySnKI7K_11starry_vdso6x86_649vdso_dataNtB2_8VdsoDataNtNtCs9N2sQKvZ18D_4core7default7Default7default
FNDA:0,_RNvMs0_NtNtCsfs3AySnKI7K_11starry_vdso6x86_649vdso_dataNtNtB9_14vdso_time_data12VdsoTimeData16set_pvclock_mode
FNF:8
FNH:0
DA:15,0
DA:16,0
DA:17,0
DA:21,0
DA:22,0
DA:23,0
DA:24,0
DA:25,0
DA:26,0
DA:28,0
DA:29,0
DA:30,0
DA:33,0
DA:34,0
DA:35,0
DA:36,0
DA:37,0
DA:38,0
DA:39,0
DA:40,0
DA:41,0
DA:44,0
DA:45,0
DA:46,0
DA:48,0
DA:49,0
DA:51,0
DA:53,0
DA:54,0
DA:55,0
DA:56,0
DA:58,0
DA:59,0
DA:62,0
DA:64,0
DA:66,0
DA:72,0
DA:73,0
DA:75,0
DA:80,0
DA:81,0
DA:82,0
DA:83,0
DA:84,0
DA:85,0
DA:86,0
DA:87,0
DA:88,0
DA:89,0
DA:90,0
DA:91,0
DA:92,0
DA:93,0
DA:94,0
DA:97,0
DA:98,0
DA:99,0
DA:100,0
DA:101,0
DA:104,0
DA:105,0
DA:106,0
DA:107,0
DA:108,0
DA:109,0
DA:110,0
BRF:0
BRH:0
LF:66
LH:0
end_of_record